target datalayout = "e-m:e-p270:32:32-p271:32:32-p272:64:64-i64:64-i128:128-f80:128-n8:16:32:64-S128"
target triple = "x86_64-pc-linux-gnu"

%struct._ndmp_conv_data_t = type { i8, ptr, ptr, ptr, ptr, ptr, ptr }

@hf_ndmp_halt = internal global i32 0, align 4
@hf_ndmp_halt_reason = internal global i32 0, align 4
@ndmp_default_protocol_version = internal global i32 4, align 4
@ndmp_conv_data = internal global ptr null, align 8

; Function Attrs: nounwind null_pointer_is_valid sspstrong uwtable
define internal zeroext i8 @get_ndmp_protocol_version() #8 {
  %1 = alloca i8, align 1
  %2 = load ptr, ptr @ndmp_conv_data, align 8
  %3 = icmp ne ptr %2, null
  br i1 %3, label %4, label %10

4:                                                ; preds = %0
  %5 = load ptr, ptr @ndmp_conv_data, align 8
  %6 = getelementptr inbounds nuw %struct._ndmp_conv_data_t, ptr %5, i32 0, i32 0
  %7 = load i8, ptr %6, align 8
  %8 = zext i8 %7 to i32
  %9 = icmp eq i32 %8, 0
  br i1 %9, label %10, label %13

10:                                               ; preds = %4, %0
  %11 = load i32, ptr @ndmp_default_protocol_version, align 4
  %12 = trunc i32 %11 to i8
  store i8 %12, ptr %1, align 1
  br label %17

13:                                               ; preds = %4
  %14 = load ptr, ptr @ndmp_conv_data, align 8
  %15 = getelementptr inbounds nuw %struct._ndmp_conv_data_t, ptr %14, i32 0, i32 0
  %16 = load i8, ptr %15, align 8
  store i8 %16, ptr %1, align 1
  br label %17

17:                                               ; preds = %13, %10
  %18 = load i8, ptr %1, align 1
  ret i8 %18
}

; Function Attrs: null_pointer_is_valid sspstrong uwtable
define internal i32 @dissect_notify_mover_halted_request(ptr noundef %0, i32 noundef %1, ptr noundef %2, ptr noundef %3, i32 noundef %4) #0 {
  %6 = alloca ptr, align 8
  %7 = alloca i32, align 4
  %8 = alloca ptr, align 8
  %9 = alloca ptr, align 8
  %10 = alloca i32, align 4
  store ptr %0, ptr %6, align 8
  store i32 %1, ptr %7, align 4
  store ptr %2, ptr %8, align 8
  store ptr %3, ptr %9, align 8
  store i32 %4, ptr %10, align 4
  %11 = load ptr, ptr %9, align 8
  %12 = load i32, ptr @hf_ndmp_halt, align 4
  %13 = load ptr, ptr %6, align 8
  %14 = load i32, ptr %7, align 4
  %15 = call ptr @proto_tree_add_item(ptr noundef %11, i32 noundef %12, ptr noundef %13, i32 noundef %14, i32 noundef 4, i32 noundef 0)
  %16 = load i32, ptr %7, align 4
  %17 = add i32 %16, 4
  store i32 %17, ptr %7, align 4
  %18 = call zeroext i8 @get_ndmp_protocol_version()
  %19 = zext i8 %18 to i32
  switch i32 %19, label %26 [
    i32 2, label %20
    i32 3, label %20
  ]

20:                                               ; preds = %5, %5
  %21 = load ptr, ptr %6, align 8
  %22 = load ptr, ptr %9, align 8
  %23 = load i32, ptr @hf_ndmp_halt_reason, align 4
  %24 = load i32, ptr %7, align 4
  %25 = call i32 @dissect_rpc_string(ptr noundef %21, ptr noundef %22, i32 noundef %23, i32 noundef %24, ptr noundef null)
  store i32 %25, ptr %7, align 4
  br label %26

26:                                               ; preds = %5, %20
  %27 = load i32, ptr %7, align 4
  ret i32 %27
}