; Function Attrs: null_pointer_is_valid sspstrong uwtable
define internal i32 @dissect_notify_mover_halted_request(ptr noundef %0, i32 noundef %1, ptr readnone captures(none) %2, ptr noundef %3, i32 %4) #0 {
  %6 = load i32, ptr @hf_ndmp_halt, align 4
  %7 = tail call ptr @proto_tree_add_item(ptr noundef %3, i32 noundef %6, ptr noundef %0, i32 noundef %1, i32 noundef 4, i32 noundef 0)
  %8 = add i32 %1, 4
  %9 = load ptr, ptr @ndmp_conv_data, align 8
  %.not.i = icmp eq ptr %9, null
  br i1 %.not.i, label %13, label %10

10:                                               ; preds = %5
  %11 = load i8, ptr %9, align 8
  %12 = icmp eq i8 %11, 0
  br i1 %12, label %13, label %get_ndmp_protocol_version.exit

13:                                               ; preds = %10, %5
  %14 = load i32, ptr @ndmp_default_protocol_version, align 4
  %15 = trunc i32 %14 to i8
  br label %get_ndmp_protocol_version.exit

get_ndmp_protocol_version.exit:                   ; preds = %10, %13
  %.0.i = phi i8 [ %15, %13 ], [ %11, %10 ]
  %16 = and i8 %.0.i, -2
  %switch = icmp eq i8 %16, 2
  br i1 %switch, label %17, label %20

17:                                               ; preds = %get_ndmp_protocol_version.exit
  %18 = load i32, ptr @hf_ndmp_halt_reason, align 4
  %19 = tail call i32 @dissect_rpc_string(ptr noundef %0, ptr noundef %3, i32 noundef %18, i32 noundef %8, ptr noundef null)
  br label %20

20:                                               ; preds = %get_ndmp_protocol_version.exit, %17
  %.0 = phi i32 [ %8, %get_ndmp_protocol_version.exit ], [ %19, %17 ]
  ret i32 %.0
}